target datalayout = "e-m:e-p270:32:32-p271:32:32-p272:64:64-i64:64-i128:128-f80:128-n8:16:32:64-S128"
target triple = "x86_64-pc-linux-gnu"

@hf_dvb_s2_table_rcst_status = internal global i32 0, align 4
@hf_dvb_s2_table_network_status = internal global i32 0, align 4
@hf_dvb_s2_table_desc_loop_count = internal global i32 0, align 4
@hf_dvb_s2_table_crc32 = internal global i32 0, align 4
@dvb_s2_rcs_version = internal global i32 1, align 4

; Function Attrs: null_pointer_is_valid sspstrong uwtable
define internal i32 @dissect_dvb_s2_table_tim(ptr noundef %0, i32 noundef %1, ptr noundef %2, i1 noundef zeroext %3, ptr noundef %4) #0 {
  %6 = alloca ptr, align 8
  %7 = alloca i32, align 4
  %8 = alloca ptr, align 8
  %9 = alloca i8, align 1
  %10 = alloca ptr, align 8
  %11 = alloca i32, align 4
  %12 = alloca i32, align 4
  %13 = alloca i32, align 4
  store ptr %0, ptr %6, align 8
  store i32 %1, ptr %7, align 4
  store ptr %2, ptr %8, align 8
  %14 = zext i1 %3 to i8
  store i8 %14, ptr %9, align 1
  store ptr %4, ptr %10, align 8
  call void @llvm.lifetime.start.p0(i64 4, ptr %11) #4
  call void @llvm.lifetime.start.p0(i64 4, ptr %12) #4
  store i32 0, ptr %12, align 4
  call void @llvm.lifetime.start.p0(i64 4, ptr %13) #4
  store i32 0, ptr %13, align 4
  %15 = load i8, ptr %9, align 1, !range !6, !noundef !7
  %16 = trunc i8 %15 to i1
  br i1 %16, label %17, label %25

17:                                               ; preds = %5
  store i32 176, ptr %13, align 4
  %18 = load ptr, ptr %8, align 8
  %19 = load i32, ptr @hf_dvb_s2_table_rcst_status, align 4
  %20 = load ptr, ptr %6, align 8
  %21 = load i32, ptr %7, align 4
  %22 = load i32, ptr %12, align 4
  %23 = add i32 %21, %22
  %24 = call ptr @proto_tree_add_item(ptr noundef %18, i32 noundef %19, ptr noundef %20, i32 noundef %23, i32 noundef 1, i32 noundef 0)
  br label %33

25:                                               ; preds = %5
  store i32 254, ptr %13, align 4
  %26 = load ptr, ptr %8, align 8
  %27 = load i32, ptr @hf_dvb_s2_table_network_status, align 4
  %28 = load ptr, ptr %6, align 8
  %29 = load i32, ptr %7, align 4
  %30 = load i32, ptr %12, align 4
  %31 = add i32 %29, %30
  %32 = call ptr @proto_tree_add_item(ptr noundef %26, i32 noundef %27, ptr noundef %28, i32 noundef %31, i32 noundef 1, i32 noundef 0)
  br label %33

33:                                               ; preds = %25, %17
  %34 = load i32, ptr %12, align 4
  %35 = add i32 %34, 1
  store i32 %35, ptr %12, align 4
  %36 = load ptr, ptr %8, align 8
  %37 = load i32, ptr @hf_dvb_s2_table_desc_loop_count, align 4
  %38 = load ptr, ptr %6, align 8
  %39 = load i32, ptr %7, align 4
  %40 = load i32, ptr %12, align 4
  %41 = add i32 %39, %40
  %42 = call ptr @proto_tree_add_item(ptr noundef %36, i32 noundef %37, ptr noundef %38, i32 noundef %41, i32 noundef 1, i32 noundef 0)
  %43 = load ptr, ptr %6, align 8
  %44 = load i32, ptr %7, align 4
  %45 = load i32, ptr %12, align 4
  %46 = add i32 %44, %45
  %47 = call zeroext i8 @tvb_get_uint8(ptr noundef %43, i32 noundef %46)
  %48 = zext i8 %47 to i32
  store i32 %48, ptr %11, align 4
  %49 = load i32, ptr %12, align 4
  %50 = add i32 %49, 1
  store i32 %50, ptr %12, align 4
  %51 = load ptr, ptr %6, align 8
  %52 = load i32, ptr %7, align 4
  %53 = load i32, ptr %12, align 4
  %54 = add i32 %52, %53
  %55 = load ptr, ptr %8, align 8
  %56 = load i32, ptr %11, align 4
  %57 = load i32, ptr %13, align 4
  %58 = load ptr, ptr %10, align 8
  %59 = call i32 @dissect_dvb_s2_table_desc(ptr noundef %51, i32 noundef %54, ptr noundef %55, i32 noundef %56, i32 noundef %57, ptr noundef %58)
  %60 = load i32, ptr %12, align 4
  %61 = add i32 %60, %59
  store i32 %61, ptr %12, align 4
  %62 = load i32, ptr @dvb_s2_rcs_version, align 4
  %63 = icmp eq i32 %62, 0
  br i1 %63, label %64, label %74

64:                                               ; preds = %33
  %65 = load ptr, ptr %8, align 8
  %66 = load i32, ptr @hf_dvb_s2_table_crc32, align 4
  %67 = load ptr, ptr %6, align 8
  %68 = load i32, ptr %7, align 4
  %69 = load i32, ptr %12, align 4
  %70 = add i32 %68, %69
  %71 = call ptr @proto_tree_add_item(ptr noundef %65, i32 noundef %66, ptr noundef %67, i32 noundef %70, i32 noundef 4, i32 noundef 0)
  %72 = load i32, ptr %12, align 4
  %73 = add i32 %72, 4
  store i32 %73, ptr %12, align 4
  br label %74

74:                                               ; preds = %64, %33
  %75 = load i32, ptr %12, align 4
  call void @llvm.lifetime.end.p0(i64 4, ptr %13) #4
  call void @llvm.lifetime.end.p0(i64 4, ptr %12) #4
  call void @llvm.lifetime.end.p0(i64 4, ptr %11) #4
  ret i32 %75
}