; Function Attrs: null_pointer_is_valid sspstrong uwtable
define internal fastcc void @dissect_dvb_s2_table_tim(ptr noundef %0, i32 noundef %1, ptr noundef %2, i1 noundef zeroext %3, ptr noundef %4) unnamed_addr #0 {
  %. = select i1 %3, i32 176, i32 254
  %hf_dvb_s2_table_rcst_status.val = load i32, ptr @hf_dvb_s2_table_rcst_status, align 4
  %hf_dvb_s2_table_network_status.val = load i32, ptr @hf_dvb_s2_table_network_status, align 4
  %6 = select i1 %3, i32 %hf_dvb_s2_table_rcst_status.val, i32 %hf_dvb_s2_table_network_status.val
  %7 = tail call ptr @proto_tree_add_item(ptr noundef %2, i32 noundef %6, ptr noundef %0, i32 noundef %1, i32 noundef 1, i32 noundef 0)
  %8 = load i32, ptr @hf_dvb_s2_table_desc_loop_count, align 4
  %9 = add i32 %1, 1
  %10 = tail call ptr @proto_tree_add_item(ptr noundef %2, i32 noundef %8, ptr noundef %0, i32 noundef %9, i32 noundef 1, i32 noundef 0)
  %11 = tail call zeroext i8 @tvb_get_uint8(ptr noundef %0, i32 noundef %9)
  %12 = zext i8 %11 to i32
  %13 = add i32 %1, 2
  %14 = tail call fastcc i32 @dissect_dvb_s2_table_desc(ptr noundef %0, i32 noundef %13, ptr noundef %2, i32 noundef %12, i32 noundef %., ptr noundef %4)
  %15 = load i32, ptr @dvb_s2_rcs_version, align 4
  %16 = icmp eq i32 %15, 0
  br i1 %16, label %17, label %22

17:                                               ; preds = %5
  %18 = add i32 %14, 2
  %19 = load i32, ptr @hf_dvb_s2_table_crc32, align 4
  %20 = add i32 %18, %1
  %21 = tail call ptr @proto_tree_add_item(ptr noundef %2, i32 noundef %19, ptr noundef %0, i32 noundef %20, i32 noundef 4, i32 noundef 0)
  br label %22

22:                                               ; preds = %17, %5
  ret void
}